; Function Attrs: nounwind uwtable
define hidden range(i32 0, 44) i32 @Curl_dynhds_h1_cadd_line(ptr noundef captures(none) %0, ptr noundef %1) local_unnamed_addr #1 {
  %.not = icmp eq ptr %1, null
  br i1 %.not, label %.split4, label %.split

.split:                                           ; preds = %2
  %3 = tail call i64 @strlen(ptr noundef nonnull dereferenceable(1) %1) #10
  %4 = tail call i32 @Curl_dynhds_h1_add_line(ptr noundef %0, ptr noundef nonnull %1, i64 noundef %3)
  br label %.split4

.split4:                                          ; preds = %2, %.split
  %phi.call = phi i32 [ %4, %.split ], [ 0, %2 ]
  ret i32 %phi.call
}